; Function Attrs: mustprogress uwtable
define void @_ZN10colvarbiasC1Ev(ptr noundef nonnull align 8 dereferenceable(312) %0) unnamed_addr #0 align 2 personality ptr @__gxx_personality_v0 {
  %2 = getelementptr inbounds i8, ptr %0, i64 312
  tail call void @_ZN11colvarparseC2Ev(ptr noundef nonnull align 8 dereferenceable(320) %2)
  %3 = getelementptr inbounds i8, ptr %0, i64 632
  invoke void @_ZN10colvardepsC2Ev(ptr noundef nonnull align 8 dereferenceable(120) %3)
          to label %4 unwind label %12

4:                                                ; preds = %1
  store ptr getelementptr inbounds inrange(-32, 264) ({ [37 x ptr], [17 x ptr], [13 x ptr] }, ptr @_ZTV10colvarbias, i64 0, i32 0, i64 4), ptr %0, align 8
  store ptr getelementptr inbounds inrange(-72, 64) ({ [37 x ptr], [17 x ptr], [13 x ptr] }, ptr @_ZTV10colvarbias, i64 0, i32 1, i64 9), ptr %2, align 8
  store ptr getelementptr inbounds inrange(-56, 48) ({ [37 x ptr], [17 x ptr], [13 x ptr] }, ptr @_ZTV10colvarbias, i64 0, i32 2, i64 7), ptr %3, align 8
  %5 = getelementptr inbounds i8, ptr %0, i64 8
  tail call void @_ZNSt7__cxx1112basic_stringIcSt11char_traitsIcESaIcEEC1Ev(ptr noundef nonnull align 8 dereferenceable(32) %5) #23
  %6 = getelementptr inbounds i8, ptr %0, i64 40
  tail call void @_ZNSt7__cxx1112basic_stringIcSt11char_traitsIcESaIcEEC1Ev(ptr noundef nonnull align 8 dereferenceable(32) %6) #23
  %7 = getelementptr inbounds i8, ptr %0, i64 72
  tail call void @_ZNSt7__cxx1112basic_stringIcSt11char_traitsIcESaIcEEC1Ev(ptr noundef nonnull align 8 dereferenceable(32) %7) #23
  %8 = getelementptr inbounds i8, ptr %0, i64 120
  tail call void @_ZNSt7__cxx1112basic_stringIcSt11char_traitsIcESaIcEEC1Ev(ptr noundef nonnull align 8 dereferenceable(32) %8) #23
  %9 = getelementptr inbounds i8, ptr %0, i64 152
  %10 = getelementptr inbounds i8, ptr %0, i64 257
  store i8 0, ptr %10, align 1
  %11 = getelementptr inbounds i8, ptr %0, i64 288
  tail call void @llvm.memset.p0.i64(ptr noundef nonnull align 8 dereferenceable(24) %11, i8 0, i64 24, i1 false)
  tail call void @llvm.memset.p0.i64(ptr noundef nonnull align 8 dereferenceable(96) %9, i8 0, i64 96, i1 false)
  ret void

12:                                               ; preds = %1
  %13 = landingpad { ptr, i32 }
          cleanup
  tail call void @_ZN11colvarparseD2Ev(ptr noundef nonnull align 8 dereferenceable(320) %2) #23
  resume { ptr, i32 } %13
}